; Function Attrs: mustprogress uwtable
define hidden noundef zeroext i1 @_ZN2cv16VideoInputStream4openERKNSt7__cxx1112basic_stringIcSt11char_traitsIcESaIcEEE(ptr noundef nonnull align 8 dereferenceable(560) %0, ptr noundef nonnull readonly align 8 captures(none) dereferenceable(32) %1) local_unnamed_addr #4 align 2 personality ptr @__gxx_personality_v0 {
  %3 = getelementptr inbounds nuw i8, ptr %0, i64 120
  %4 = tail call noundef zeroext i1 @_ZNKSt12__basic_fileIcE7is_openEv(ptr noundef nonnull readonly align 8 dereferenceable(9) %3) #29
  br i1 %4, label %5, label %_ZN2cv16VideoInputStream5closeEv.exit

5:                                                ; preds = %2
  %6 = getelementptr inbounds nuw i8, ptr %0, i64 520
  store i8 0, ptr %6, align 8, !tbaa !3
  %7 = getelementptr inbounds nuw i8, ptr %0, i64 16
  %8 = tail call noundef ptr @_ZNSt13basic_filebufIcSt11char_traitsIcEE5closeEv(ptr noundef nonnull align 8 dereferenceable(240) %7)
  %.not.i.i = icmp eq ptr %8, null
  br i1 %.not.i.i, label %9, label %_ZN2cv16VideoInputStream5closeEv.exit

9:                                                ; preds = %5
  %10 = load ptr, ptr %0, align 8, !tbaa !29
  %11 = getelementptr i8, ptr %10, i64 -24
  %12 = load i64, ptr %11, align 8
  %13 = getelementptr inbounds i8, ptr %0, i64 %12
  %14 = getelementptr inbounds nuw i8, ptr %13, i64 32
  %15 = load i32, ptr %14, align 8, !tbaa !31
  %16 = or i32 %15, 4
  tail call void @_ZNSt9basic_iosIcSt11char_traitsIcEE5clearESt12_Ios_Iostate(ptr noundef nonnull align 8 dereferenceable(264) %13, i32 noundef %16)
  br label %_ZN2cv16VideoInputStream5closeEv.exit

_ZN2cv16VideoInputStream5closeEv.exit:            ; preds = %2, %5, %9
  %17 = load ptr, ptr %1, align 8, !tbaa !28
  %18 = getelementptr inbounds nuw i8, ptr %0, i64 16
  %19 = tail call noundef ptr @_ZNSt13basic_filebufIcSt11char_traitsIcEE4openEPKcSt13_Ios_Openmode(ptr noundef nonnull align 8 dereferenceable(240) %18, ptr noundef %17, i32 noundef 12)
  %.not.i = icmp eq ptr %19, null
  %20 = load ptr, ptr %0, align 8, !tbaa !29
  %21 = getelementptr i8, ptr %20, i64 -24
  %22 = load i64, ptr %21, align 8
  %23 = getelementptr inbounds i8, ptr %0, i64 %22
  br i1 %.not.i, label %24, label %_ZNSt14basic_ifstreamIcSt11char_traitsIcEE4openEPKcSt13_Ios_Openmode.exit

24:                                               ; preds = %_ZN2cv16VideoInputStream5closeEv.exit
  %25 = getelementptr inbounds nuw i8, ptr %23, i64 32
  %26 = load i32, ptr %25, align 8, !tbaa !31
  %27 = or i32 %26, 4
  br label %_ZNSt14basic_ifstreamIcSt11char_traitsIcEE4openEPKcSt13_Ios_Openmode.exit

_ZNSt14basic_ifstreamIcSt11char_traitsIcEE4openEPKcSt13_Ios_Openmode.exit: ; preds = %_ZN2cv16VideoInputStream5closeEv.exit, %24
  %.sink.i = phi i32 [ %27, %24 ], [ 0, %_ZN2cv16VideoInputStream5closeEv.exit ]
  tail call void @_ZNSt9basic_iosIcSt11char_traitsIcEE5clearESt12_Ios_Iostate(ptr noundef nonnull align 8 dereferenceable(264) %23, i32 noundef %.sink.i)
  %28 = tail call noundef zeroext i1 @_ZNKSt12__basic_fileIcE7is_openEv(ptr noundef nonnull readonly align 8 dereferenceable(9) %3) #29
  %29 = getelementptr inbounds nuw i8, ptr %0, i64 520
  %30 = zext i1 %28 to i8
  store i8 %30, ptr %29, align 8, !tbaa !3
  ret i1 %28
}